; Function Attrs: mustprogress nofree norecurse nosync nounwind willreturn memory(read, inaccessiblemem: none) uwtable
define dso_local noundef zeroext i1 @_ZNK8cmTarget15IsRuntimeBinaryEv(ptr noundef nonnull readonly align 8 captures(none) dereferenceable(8) %0) local_unnamed_addr #6 align 2 {
  %2 = load ptr, ptr %0, align 8, !tbaa !22
  %3 = load i32, ptr %2, align 8, !tbaa !24
  %4 = icmp ult i32 %3, 4
  %switch.cast = trunc i32 %3 to i4
  %switch.downshift = lshr i4 -3, %switch.cast
  %switch.masked = trunc i4 %switch.downshift to i1
  %.0 = select i1 %4, i1 %switch.masked, i1 false
  ret i1 %.0
}